(S'gamma_exponential_mixture'
p0
(dp1
S'generalized_exponential'
p2
(g2
cnumpy.core.multiarray
scalar
p3
(cnumpy
dtype
p4
(S'f8'
p5
I0
I1
tp6
Rp7
(I3
S'<'
p8
NNNI-1
I-1
I0
tp9
bS'\xbb\xbd7\xfb,\xfb#@'
p10
tp11
Rp12
g3
(g7
S'\x8a\xce\x00\x00\x00\x00\xf0?'
p13
tp14
Rp15
tp16
sS'gamma'
p17
(g17
F4.1951866149902344
g3
(g7
S'j\xf8+\x06\xb9G\xff?'
p18
tp19
Rp20
tp21
s(lp22
g3
(g7
S'\x02\x92\x8fOO\xc5\xb9?'
p23
tp24
Rp25
ag3
(g7
S'\xbf\r\x0e\x16V\xc7\xec?'
p26
tp27
Rp28
atp29
.