(S'gamma_exponential_mixture'
p0
(dp1
S'generalized_exponential'
p2
(g2
cnumpy.core.multiarray
scalar
p3
(cnumpy
dtype
p4
(S'f8'
p5
I0
I1
tp6
Rp7
(I3
S'<'
p8
NNNI-1
I-1
I0
tp9
bS'\x08\xf5\x1e\x11\xf7\xd7#@'
p10
tp11
Rp12
g3
(g7
S'Q\xc4U\x8fS\xc0\xf0?'
p13
tp14
Rp15
tp16
sS'gamma'
p17
(g17
F5.0431175231933594
g3
(g7
S'N\xd3#\x93PR\x00@'
p18
tp19
Rp20
tp21
s(lp22
g3
(g7
S'r\x08{\xa2gI\xb5?'
p23
tp24
Rp25
ag3
(g7
S'\xf2\x9e\xb0\x0b\xd3V\xed?'
p26
tp27
Rp28
atp29
.