(S'gamma_exponential_mixture'
p0
(dp1
S'generalized_exponential'
p2
(g2
cnumpy.core.multiarray
scalar
p3
(cnumpy
dtype
p4
(S'f8'
p5
I0
I1
tp6
Rp7
(I3
S'<'
p8
NNNI-1
I-1
I0
tp9
bS'\xa7\xae\x0e{\xe1\xd3#@'
p10
tp11
Rp12
g3
(g7
S'\x8a\xce\x00\x00\x00\x00\xf0?'
p13
tp14
Rp15
tp16
sS'gamma'
p17
(g17
F5.7386360168457031
g3
(g7
S"\xba\xa5R'\xe2\x81\xf6?"
p18
tp19
Rp20
tp21
s(lp22
g3
(g7
S'\xec]\xae\xea\x81\x92\xc1?'
p23
tp24
Rp25
ag3
(g7
S'\x86hT\x85_\x9b\xeb?'
p26
tp27
Rp28
atp29
.