(S'gamma_exponential_mixture'
p0
(dp1
S'generalized_exponential'
p2
(g2
cnumpy.core.multiarray
scalar
p3
(cnumpy
dtype
p4
(S'f8'
p5
I0
I1
tp6
Rp7
(I3
S'<'
p8
NNNI-1
I-1
I0
tp9
bS'\x18\xd8\xd2\xf0j\xf9#@'
p10
tp11
Rp12
g3
(g7
S'\x8a\xce\x00\x00\x00\x00\xf0?'
p13
tp14
Rp15
tp16
sS'gamma'
p17
(g17
F4.1704597473144531
g3
(g7
S'\xf1\xf9oS\xba\xff\xf6?'
p18
tp19
Rp20
tp21
s(lp22
g3
(g7
S'\xb2l/\x15s\xa6\xe7?'
p23
tp24
Rp25
ag3
(g7
S'\x9c&\xa1\xd5\x19\xb3\xd0?'
p26
tp27
Rp28
atp29
.