(S'gamma_exponential_mixture'
p0
(dp1
S'generalized_exponential'
p2
(g2
cnumpy.core.multiarray
scalar
p3
(cnumpy
dtype
p4
(S'f8'
p5
I0
I1
tp6
Rp7
(I3
S'<'
p8
NNNI-1
I-1
I0
tp9
bS'\x92\xea$\xdc\x1a\xfb#@'
p10
tp11
Rp12
g3
(g7
S'\x8a\xce\x00\x00\x00\x00\xf0?'
p13
tp14
Rp15
tp16
sS'gamma'
p17
(g17
F3.9980430603027344
g3
(g7
S'\x7f\x93\x95[f\x14\xfa?'
p18
tp19
Rp20
tp21
s(lp22
g3
(g7
S'\xcd\x02\xb8\xc4\xf9\x1e\xdd?'
p23
tp24
Rp25
ag3
(g7
S'\x9a\xfe\xa3\x1d\x83p\xe1?'
p26
tp27
Rp28
atp29
.