(S'gamma_exponential_mixture'
p0
(dp1
S'generalized_exponential'
p2
(g2
cnumpy.core.multiarray
scalar
p3
(cnumpy
dtype
p4
(S'f8'
p5
I0
I1
tp6
Rp7
(I3
S'<'
p8
NNNI-1
I-1
I0
tp9
bS'\xc5\xa9\xef\x7f\x07\xd6#@'
p10
tp11
Rp12
g3
(g7
S'\x8a\xce\x00\x00\x00\x00\xf0?'
p13
tp14
Rp15
tp16
sS'gamma'
p17
(g17
F3.6132316589355469
g3
(g7
S'\xcf&\x9e\x90E\x11\xf9?'
p18
tp19
Rp20
tp21
s(lp22
g3
(g7
S'E\x859\x83g\x15\xe8?'
p23
tp24
Rp25
ag3
(g7
S'\xec\xea\x19\xf3a\xaa\xcf?'
p26
tp27
Rp28
atp29
.