(S'gamma_exponential_mixture'
p0
(dp1
S'generalized_exponential'
p2
(g2
cnumpy.core.multiarray
scalar
p3
(cnumpy
dtype
p4
(S'f8'
p5
I0
I1
tp6
Rp7
(I3
S'<'
p8
NNNI-1
I-1
I0
tp9
bS'}\xe3U/\x1d\xfc#@'
p10
tp11
Rp12
g3
(g7
S'P\xd7\xab\x87!\xd8\xf4?'
p13
tp14
Rp15
tp16
sS'gamma'
p17
(g17
F7.2710151672363281
g3
(g7
S'\xe36\xbf\x11j\r\xf1?'
p18
tp19
Rp20
tp21
s(lp22
g3
(g7
S'".\x9e\xac\x93-\xd7?'
p23
tp24
Rp25
ag3
(g7
S'\xef\xe8\xb0)6i\xe4?'
p26
tp27
Rp28
atp29
.