(S'gamma_exponential_mixture'
p0
(dp1
S'generalized_exponential'
p2
(g2
cnumpy.core.multiarray
scalar
p3
(cnumpy
dtype
p4
(S'f8'
p5
I0
I1
tp6
Rp7
(I3
S'<'
p8
NNNI-1
I-1
I0
tp9
bS'\x94\x8f}R\xb5\xe2#@'
p10
tp11
Rp12
g3
(g7
S'\x1cEA\x02\xe0\xb1\x00@'
p13
tp14
Rp15
tp16
sS'gamma'
p17
(g17
F41.700923919677734
g3
(g7
S'\x98^\xdc\xf5{\x10\xb6?'
p18
tp19
Rp20
tp21
s(lp22
g3
(g7
S'c\x0f\xe3\xd9\rP\xef?'
p23
tp24
Rp25
ag3
(g7
S'\xb9\x13\x9e\xc3D\xfe\x95?'
p26
tp27
Rp28
atp29
.