(S'gamma_exponential_mixture'
p0
(dp1
S'generalized_exponential'
p2
(g2
cnumpy.core.multiarray
scalar
p3
(cnumpy
dtype
p4
(S'f8'
p5
I0
I1
tp6
Rp7
(I3
S'<'
p8
NNNI-1
I-1
I0
tp9
bS'\xbb\\m\xe3\xa4\xd6#@'
p10
tp11
Rp12
g3
(g7
S'\x8a\xce\x00\x00\x00\x00\xf0?'
p13
tp14
Rp15
tp16
sS'gamma'
p17
(g17
F6.5812263488769531
g3
(g7
S'\x82\xfd>\xb6E\xc6\xf6?'
p18
tp19
Rp20
tp21
s(lp22
g3
(g7
S'\xfb\xf3\x7f\xe2\x87\xc0\xb0?'
p23
tp24
Rp25
ag3
(g7
S'\x81\x01\xb0\x03\xef\xe7\xed?'
p26
tp27
Rp28
atp29
.