(S'gamma_exponential_mixture'
p0
(dp1
S'generalized_exponential'
p2
(g2
cnumpy.core.multiarray
scalar
p3
(cnumpy
dtype
p4
(S'f8'
p5
I0
I1
tp6
Rp7
(I3
S'<'
p8
NNNI-1
I-1
I0
tp9
bS'\xc8,\xee\xcb\xbb\xf1\x04@'
p10
tp11
Rp12
g3
(g7
S'~\xcddp\xcd\x92\xf3?'
p13
tp14
Rp15
tp16
sS'gamma'
p17
(g17
F9.1634254455566406
g3
(g7
S'\xa4\x96\xc6h\xa4?\xf0?'
p18
tp19
Rp20
tp21
s(lp22
g3
(g7
S'\xfb\xaa\x93\x03\xb7\xf4\xca?'
p23
tp24
Rp25
ag3
(g7
S'A\x15\x1b?\xd2B\xe9?'
p26
tp27
Rp28
atp29
.