(S'gamma_exponential_mixture'
p0
(dp1
S'generalized_exponential'
p2
(g2
cnumpy.core.multiarray
scalar
p3
(cnumpy
dtype
p4
(S'f8'
p5
I0
I1
tp6
Rp7
(I3
S'<'
p8
NNNI-1
I-1
I0
tp9
bS'\x10\x07\xf1S\x1b\xff#@'
p10
tp11
Rp12
g3
(g7
S'\x8a\xce\x00\x00\x00\x00\xf0?'
p13
tp14
Rp15
tp16
sS'gamma'
p17
(g17
F4.1820106506347656
g3
(g7
S'\x9a\xc2\x93\xe7\x06\xc3\xfe?'
p18
tp19
Rp20
tp21
s(lp22
g3
(g7
S'_\xd4\xd83{\xac\xc5?'
p23
tp24
Rp25
ag3
(g7
S'\xe8\xca\t3\xe1\x94\xea?'
p26
tp27
Rp28
atp29
.