(S'gamma_exponential_mixture'
p0
(dp1
S'generalized_exponential'
p2
(g2
cnumpy.core.multiarray
scalar
p3
(cnumpy
dtype
p4
(S'f8'
p5
I0
I1
tp6
Rp7
(I3
S'<'
p8
NNNI-1
I-1
I0
tp9
bS'\xf0\xd5\xf7b\xae&\xe7?'
p10
tp11
Rp12
g3
(g7
S'v\xe3\x87`*i\x04@'
p13
tp14
Rp15
tp16
sS'gamma'
p17
(g17
F23.815814971923828
g3
(g7
S'\x1d\xdb\x96l\x1e?\xdb?'
p18
tp19
Rp20
tp21
s(lp22
g3
(g7
S'\xb2\x98}\xa5b\xfe\x8b?'
p23
tp24
Rp25
ag3
(g7
S'\x9c\tju\x06\x90\xef?'
p26
tp27
Rp28
atp29
.