(S'gamma_exponential_mixture'
p0
(dp1
S'generalized_exponential'
p2
(g2
cnumpy.core.multiarray
scalar
p3
(cnumpy
dtype
p4
(S'f8'
p5
I0
I1
tp6
Rp7
(I3
S'<'
p8
NNNI-1
I-1
I0
tp9
bS'\x08\xd3\xb8}\xb7\xfd#@'
p10
tp11
Rp12
g3
(g7
S'Pg\xc9\xa6\xd5\xe5\xf3?'
p13
tp14
Rp15
tp16
sS'gamma'
p17
(g17
F6.8304557800292969
g3
(g7
S'J\x89\xe5\x11_\x86\xf3?'
p18
tp19
Rp20
tp21
s(lp22
g3
(g7
S'\xe0f\xda\x067\xb4\xc8?'
p23
tp24
Rp25
ag3
(g7
S'HfI>\xf2\xd2\xe9?'
p26
tp27
Rp28
atp29
.