(S'gamma_exponential_mixture'
p0
(dp1
S'generalized_exponential'
p2
(g2
cnumpy.core.multiarray
scalar
p3
(cnumpy
dtype
p4
(S'f8'
p5
I0
I1
tp6
Rp7
(I3
S'<'
p8
NNNI-1
I-1
I0
tp9
bS'\xd6\xf2\r\xc9\x83\xd8#@'
p10
tp11
Rp12
g3
(g7
S'\x8a\xce\x00\x00\x00\x00\xf0?'
p13
tp14
Rp15
tp16
sS'gamma'
p17
(g17
F4.0769462585449219
g3
(g7
S'\xe79\xbc\x9e\xa7|\xfb?'
p18
tp19
Rp20
tp21
s(lp22
g3
(g7
S'|\x91(\xb64j\xd0?'
p23
tp24
Rp25
ag3
(g7
S'B\xb7\xeb\xa4\xe5\xca\xe7?'
p26
tp27
Rp28
atp29
.