(S'gamma_exponential_mixture'
p0
(dp1
S'generalized_exponential'
p2
(g2
cnumpy.core.multiarray
scalar
p3
(cnumpy
dtype
p4
(S'f8'
p5
I0
I1
tp6
Rp7
(I3
S'<'
p8
NNNI-1
I-1
I0
tp9
bS'\xf2Z\xb7k\xf2\x7f\xf8?'
p10
tp11
Rp12
g3
(g7
S'OA\xaf\xa18\xd3\xfc?'
p13
tp14
Rp15
tp16
sS'gamma'
p17
(g17
F8.2372703552246094
g3
(g7
S'\x92v\xe2#\xb7q\xf2?'
p18
tp19
Rp20
tp21
s(lp22
g3
(g7
S'&\x83\xec\xe7C\xd8\xa1?'
p23
tp24
Rp25
ag3
(g7
S'\xce7\x81\xc1{\xe2\xee?'
p26
tp27
Rp28
atp29
.