(S'gamma_exponential_mixture'
p0
(dp1
S'generalized_exponential'
p2
(g2
cnumpy.core.multiarray
scalar
p3
(cnumpy
dtype
p4
(S'f8'
p5
I0
I1
tp6
Rp7
(I3
S'<'
p8
NNNI-1
I-1
I0
tp9
bS'\xef9\x0eE\xe9\xcf#@'
p10
tp11
Rp12
g3
(g7
S'\x8a\xce\x00\x00\x00\x00\xf0?'
p13
tp14
Rp15
tp16
sS'gamma'
p17
(g17
F7.8198585510253906
g3
(g7
S'_}>i?\t\xf4?'
p18
tp19
Rp20
tp21
s(lp22
g3
(g7
S'\xbbm\xf0J\x12\xcf\xc0?'
p23
tp24
Rp25
ag3
(g7
S'\x92\xe4Cm;\xcc\xeb?'
p26
tp27
Rp28
atp29
.