(S'gamma_exponential_mixture'
p0
(dp1
S'generalized_exponential'
p2
(g2
cnumpy.core.multiarray
scalar
p3
(cnumpy
dtype
p4
(S'f8'
p5
I0
I1
tp6
Rp7
(I3
S'<'
p8
NNNI-1
I-1
I0
tp9
bS'\x9d~\xad/h\xf8#@'
p10
tp11
Rp12
g3
(g7
S'@\xbdNA3\x90\xf6?'
p13
tp14
Rp15
tp16
sS'gamma'
p17
(g17
F5.1429176330566406
g3
(g7
S'\xcf\xa2X\x83\xcb\x8c\xf7?'
p18
tp19
Rp20
tp21
s(lp22
g3
(g7
S'\x9f|\xe0~\xd9\x06\xa7?'
p23
tp24
Rp25
ag3
(g7
S'6\xf8\x11h\x92\x8f\xee?'
p26
tp27
Rp28
atp29
.