(S'gamma_exponential_mixture'
p0
(dp1
S'generalized_exponential'
p2
(g2
cnumpy.core.multiarray
scalar
p3
(cnumpy
dtype
p4
(S'f8'
p5
I0
I1
tp6
Rp7
(I3
S'<'
p8
NNNI-1
I-1
I0
tp9
bS',\x12\xce\xe1]\xd4#@'
p10
tp11
Rp12
g3
(g7
S'\xf5\xfbP\xeb\x1d\x19\xf4?'
p13
tp14
Rp15
tp16
sS'gamma'
p17
(g17
F4.6452751159667969
g3
(g7
S'L\x11\xec\xc5;\x98\xfe?'
p18
tp19
Rp20
tp21
s(lp22
g3
(g7
S']w}\xc4/\x8b\xb3?'
p23
tp24
Rp25
ag3
(g7
S'\x15Qp\x07\x9a\x8e\xed?'
p26
tp27
Rp28
atp29
.