(S'gamma_exponential_mixture'
p0
(dp1
S'generalized_exponential'
p2
(g2
cnumpy.core.multiarray
scalar
p3
(cnumpy
dtype
p4
(S'f8'
p5
I0
I1
tp6
Rp7
(I3
S'<'
p8
NNNI-1
I-1
I0
tp9
bS'\x01\xac9\xd9\xeb\x9f\x06@'
p10
tp11
Rp12
g3
(g7
S'\x0c\n\x8b\x86\x99\xaa\x05@'
p13
tp14
Rp15
tp16
sS'gamma'
p17
(g17
F16.273830413818359
g3
(g7
S'\xa5C\xb5\xa3\xce\x16\xe8?'
p18
tp19
Rp20
tp21
s(lp22
g3
(g7
S'\xf2\xf1G_\xa7\xfe\xb5?'
p23
tp24
Rp25
ag3
(g7
S'\xc2\x01\x17\x14+@\xed?'
p26
tp27
Rp28
atp29
.