(S'gamma_exponential_mixture'
p0
(dp1
S'generalized_exponential'
p2
(g2
cnumpy.core.multiarray
scalar
p3
(cnumpy
dtype
p4
(S'f8'
p5
I0
I1
tp6
Rp7
(I3
S'<'
p8
NNNI-1
I-1
I0
tp9
bS'\xbe\xc9>\x98\x13\xed#@'
p10
tp11
Rp12
g3
(g7
S'\x8a\xce\x00\x00\x00\x00\xf0?'
p13
tp14
Rp15
tp16
sS'gamma'
p17
(g17
F3.9943809509277344
g3
(g7
S'\x90\xc9\xf8\xdc\xb5\xbc\x04@'
p18
tp19
Rp20
tp21
s(lp22
g3
(g7
S'd\x04\xc6%[\xe0\xc1?'
p23
tp24
Rp25
ag3
(g7
S'\xe8~\x8e6\xe9\x87\xeb?'
p26
tp27
Rp28
atp29
.