(S'gamma_exponential_mixture'
p0
(dp1
S'generalized_exponential'
p2
(g2
cnumpy.core.multiarray
scalar
p3
(cnumpy
dtype
p4
(S'f8'
p5
I0
I1
tp6
Rp7
(I3
S'<'
p8
NNNI-1
I-1
I0
tp9
bS'\x10ih\x81h\xd8#@'
p10
tp11
Rp12
g3
(g7
S'\x8a\xce\x00\x00\x00\x00\xf0?'
p13
tp14
Rp15
tp16
sS'gamma'
p17
(g17
F5.6754875183105469
g3
(g7
S"'-\x86\xe3\xe7\t\xf7?"
p18
tp19
Rp20
tp21
s(lp22
g3
(g7
S'\xdc\xac\x8e\xd9\xa8L\xb2?'
p23
tp24
Rp25
ag3
(g7
S'd*\xce\xe4j\xb6\xed?'
p26
tp27
Rp28
atp29
.