(S'gamma_exponential_mixture'
p0
(dp1
S'generalized_exponential'
p2
(g2
cnumpy.core.multiarray
scalar
p3
(cnumpy
dtype
p4
(S'f8'
p5
I0
I1
tp6
Rp7
(I3
S'<'
p8
NNNI-1
I-1
I0
tp9
bS"VwD'\xed\xd5#@"
p10
tp11
Rp12
g3
(g7
S'7 qu\xda\xe4\xf4?'
p13
tp14
Rp15
tp16
sS'gamma'
p17
(g17
F4.1565818786621094
g3
(g7
S'\xdaP)\xddH\xda\xfb?'
p18
tp19
Rp20
tp21
s(lp22
g3
(g7
S'*\x89\x1ejT\x8e\xe8?'
p23
tp24
Rp25
ag3
(g7
S'V\xdb\x85W\xae\xc6\xcd?'
p26
tp27
Rp28
atp29
.