(S'gamma_exponential_mixture'
p0
(dp1
S'generalized_exponential'
p2
(g2
cnumpy.core.multiarray
scalar
p3
(cnumpy
dtype
p4
(S'f8'
p5
I0
I1
tp6
Rp7
(I3
S'<'
p8
NNNI-1
I-1
I0
tp9
bS'\xed]\x9e\x7f\xa1\xf7#@'
p10
tp11
Rp12
g3
(g7
S'\x13\xd4{\x10\x91\xa6\xff?'
p13
tp14
Rp15
tp16
sS'gamma'
p17
(g17
F4.8748817443847656
g3
(g7
S'\xbc\xaf*\xfc\xccj\xfd?'
p18
tp19
Rp20
tp21
s(lp22
g3
(g7
S'\xbee{u\xb1\x9a\xd1?'
p23
tp24
Rp25
ag3
(g7
S'!MBE\xa72\xe7?'
p26
tp27
Rp28
atp29
.