(S'gamma_exponential_mixture'
p0
(dp1
S'generalized_exponential'
p2
(g2
cnumpy.core.multiarray
scalar
p3
(cnumpy
dtype
p4
(S'f8'
p5
I0
I1
tp6
Rp7
(I3
S'<'
p8
NNNI-1
I-1
I0
tp9
bS'\xf7\x1a\xb0\x9be\xfe#@'
p10
tp11
Rp12
g3
(g7
S'.\n_\x03\xf1[\xf5?'
p13
tp14
Rp15
tp16
sS'gamma'
p17
(g17
F5.0190544128417969
g3
(g7
S'\x12\xc8\xdeh\xb5Z\xfd?'
p18
tp19
Rp20
tp21
s(lp22
g3
(g7
S'\x0b\xe1gj\x0e\x17\xd4?'
p23
tp24
Rp25
ag3
(g7
S'{\x0f\xcc\xcax\xf4\xe5?'
p26
tp27
Rp28
atp29
.