(S'gamma_exponential_mixture'
p0
(dp1
S'generalized_exponential'
p2
(g2
cnumpy.core.multiarray
scalar
p3
(cnumpy
dtype
p4
(S'f8'
p5
I0
I1
tp6
Rp7
(I3
S'<'
p8
NNNI-1
I-1
I0
tp9
bS'\x08\xb9Z\x8d\x93\xf7#@'
p10
tp11
Rp12
g3
(g7
S'\x8a\xce\x00\x00\x00\x00\xf0?'
p13
tp14
Rp15
tp16
sS'gamma'
p17
(g17
F2.4849128723144531
g3
(g7
S'\xf5^\xe3[\x9a\x06\x06@'
p18
tp19
Rp20
tp21
s(lp22
g3
(g7
S'\xd0\x85t\x08\x1b\x0f\xef?'
p23
tp24
Rp25
ag3
(g7
S'\x03Fo\xf1\x9e\x1c\x9e?'
p26
tp27
Rp28
atp29
.