(S'gamma_exponential_mixture'
p0
(dp1
S'generalized_exponential'
p2
(g2
cnumpy.core.multiarray
scalar
p3
(cnumpy
dtype
p4
(S'f8'
p5
I0
I1
tp6
Rp7
(I3
S'<'
p8
NNNI-1
I-1
I0
tp9
bS'\xd5\xc6\xb2\xb8A4\x0e@'
p10
tp11
Rp12
g3
(g7
S'D\x0c`>\xc6a\xfa?'
p13
tp14
Rp15
tp16
sS'gamma'
p17
(g17
F14.045825958251953
g3
(g7
S'\x15\xab\xb8\xcf/G\xec?'
p18
tp19
Rp20
tp21
s(lp22
g3
(g7
S'wY\xdfs\xc39\xa0?'
p23
tp24
Rp25
ag3
(g7
S'i\n\xc2\xc8c\xfc\xee?'
p26
tp27
Rp28
atp29
.