(S'gamma_exponential_mixture'
p0
(dp1
S'generalized_exponential'
p2
(g2
cnumpy.core.multiarray
scalar
p3
(cnumpy
dtype
p4
(S'f8'
p5
I0
I1
tp6
Rp7
(I3
S'<'
p8
NNNI-1
I-1
I0
tp9
bS'\xa2\xd4Lv\x9d\xd8#@'
p10
tp11
Rp12
g3
(g7
S'\xe3$\xbd\xe7U\x0b\xf0?'
p13
tp14
Rp15
tp16
sS'gamma'
p17
(g17
F3.3202552795410156
g3
(g7
S'\xb7\xb6,\xf6l\xb7\x03@'
p18
tp19
Rp20
tp21
s(lp22
g3
(g7
S'\x9c\xe0M\xc6+\xf0\xe9?'
p23
tp24
Rp25
ag3
(g7
S'\x93}\xc8\xe6P?\xc8?'
p26
tp27
Rp28
atp29
.