(S'gamma_exponential_mixture'
p0
(dp1
S'generalized_exponential'
p2
(g2
cnumpy.core.multiarray
scalar
p3
(cnumpy
dtype
p4
(S'f8'
p5
I0
I1
tp6
Rp7
(I3
S'<'
p8
NNNI-1
I-1
I0
tp9
bS'\x94\xc4*uqi\xf2?'
p10
tp11
Rp12
g3
(g7
S'\x84\xec\xf3AtT\x05@'
p13
tp14
Rp15
tp16
sS'gamma'
p17
(g17
F13.990962982177734
g3
(g7
S'\xb7\xbf\x1axT\xa7\xed?'
p18
tp19
Rp20
tp21
s(lp22
g3
(g7
S'\xb7\x8fC\x05\x152\xad?'
p23
tp24
Rp25
ag3
(g7
S'\x04\xc7\xab\xaf\xde,\xee?'
p26
tp27
Rp28
atp29
.