(S'gamma_exponential_mixture'
p0
(dp1
S'generalized_exponential'
p2
(g2
cnumpy.core.multiarray
scalar
p3
(cnumpy
dtype
p4
(S'f8'
p5
I0
I1
tp6
Rp7
(I3
S'<'
p8
NNNI-1
I-1
I0
tp9
bS'8\xc5\t\x9a\x90\xe6#@'
p10
tp11
Rp12
g3
(g7
S'\xca\x14hm\xb0/\xfe?'
p13
tp14
Rp15
tp16
sS'gamma'
p17
(g17
F8.2980308532714844
g3
(g7
S'\xe7\xe9\xb4\xc7"\\\xf6?'
p18
tp19
Rp20
tp21
s(lp22
g3
(g7
S'%o{w\xe3\xd8\x91?'
p23
tp24
Rp25
ag3
(g7
S'\x87$D\xe48q\xef?'
p26
tp27
Rp28
atp29
.