(S'gamma_exponential_mixture'
p0
(dp1
S'generalized_exponential'
p2
(g2
cnumpy.core.multiarray
scalar
p3
(cnumpy
dtype
p4
(S'f8'
p5
I0
I1
tp6
Rp7
(I3
S'<'
p8
NNNI-1
I-1
I0
tp9
bS'\x98Y\x8f\xd8r\xd7#@'
p10
tp11
Rp12
g3
(g7
S'\x8a\xce\x00\x00\x00\x00\xf0?'
p13
tp14
Rp15
tp16
sS'gamma'
p17
(g17
F3.6425666809082031
g3
(g7
S'S\x9b\x04\xf1\xb5\xe9\x03@'
p18
tp19
Rp20
tp21
s(lp22
g3
(g7
S'\xb4g+\xc4\xf6\xeb\xc5?'
p23
tp24
Rp25
ag3
(g7
S'\x13&\xf5N\x02\x85\xea?'
p26
tp27
Rp28
atp29
.