(S'gamma_exponential_mixture'
p0
(dp1
S'generalized_exponential'
p2
(g2
cnumpy.core.multiarray
scalar
p3
(cnumpy
dtype
p4
(S'f8'
p5
I0
I1
tp6
Rp7
(I3
S'<'
p8
NNNI-1
I-1
I0
tp9
bS'\x16\x8d\x0b\xa2z\xd8#@'
p10
tp11
Rp12
g3
(g7
S'\x8a\xce\x00\x00\x00\x00\xf0?'
p13
tp14
Rp15
tp16
sS'gamma'
p17
(g17
F3.8825187683105469
g3
(g7
S'b\xc2\xe4\x84GX\x01@'
p18
tp19
Rp20
tp21
s(lp22
g3
(g7
S'\xd4\xdf&\xc7\xd2\xc5\xc7?'
p23
tp24
Rp25
ag3
(g7
S'\x0cH6N\x8b\x0e\xea?'
p26
tp27
Rp28
atp29
.