(S'gamma_exponential_mixture'
p0
(dp1
S'generalized_exponential'
p2
(g2
cnumpy.core.multiarray
scalar
p3
(cnumpy
dtype
p4
(S'f8'
p5
I0
I1
tp6
Rp7
(I3
S'<'
p8
NNNI-1
I-1
I0
tp9
bS'\x10\x11\xfc\xb4K\xd8#@'
p10
tp11
Rp12
g3
(g7
S'\xf9E\xd3\r\xe8\xd5\xf0?'
p13
tp14
Rp15
tp16
sS'gamma'
p17
(g17
F4.9548530578613281
g3
(g7
S'C\x97\xb2<\x8f\xe2\xf9?'
p18
tp19
Rp20
tp21
s(lp22
g3
(g7
S'\x18J\xe5Y\xe9e\xcf?'
p23
tp24
Rp25
ag3
(g7
S'y\xad\x86\xa9\x85&\xe8?'
p26
tp27
Rp28
atp29
.