(S'gamma_exponential_mixture'
p0
(dp1
S'generalized_exponential'
p2
(g2
cnumpy.core.multiarray
scalar
p3
(cnumpy
dtype
p4
(S'f8'
p5
I0
I1
tp6
Rp7
(I3
S'<'
p8
NNNI-1
I-1
I0
tp9
bS'\r\x10X\xaeM\xb6\xfd?'
p10
tp11
Rp12
g3
(g7
S'\xbc-\xc0\x04\xc5\x80\xff?'
p13
tp14
Rp15
tp16
sS'gamma'
p17
(g17
F11.052120208740234
g3
(g7
S'\xf5pfm: \xf0?'
p18
tp19
Rp20
tp21
s(lp22
g3
(g7
S'\xce\xeb\x9e\x16\x92\xfc\xbc?'
p23
tp24
Rp25
ag3
(g7
S'\x87",\xbdm`\xec?'
p26
tp27
Rp28
atp29
.