(S'gamma_exponential_mixture'
p0
(dp1
S'generalized_exponential'
p2
(g2
cnumpy.core.multiarray
scalar
p3
(cnumpy
dtype
p4
(S'f8'
p5
I0
I1
tp6
Rp7
(I3
S'<'
p8
NNNI-1
I-1
I0
tp9
bS'\xea?A\xc0P\xd8#@'
p10
tp11
Rp12
g3
(g7
S'\xac*\xe7\x8c\xa0\xb8\xf0?'
p13
tp14
Rp15
tp16
sS'gamma'
p17
(g17
F4.7687797546386719
g3
(g7
S'\x89\x87U\x05UE\xf5?'
p18
tp19
Rp20
tp21
s(lp22
g3
(g7
S'\x1fe\xe877\x85\xed?'
p23
tp24
Rp25
ag3
(g7
S'\x05\xd7\xbc@F\xd6\xb3?'
p26
tp27
Rp28
atp29
.