(S'gamma_exponential_mixture'
p0
(dp1
S'generalized_exponential'
p2
(g2
cnumpy.core.multiarray
scalar
p3
(cnumpy
dtype
p4
(S'f8'
p5
I0
I1
tp6
Rp7
(I3
S'<'
p8
NNNI-1
I-1
I0
tp9
bS'\x94p\xe5\x83D\xd3#@'
p10
tp11
Rp12
g3
(g7
S'\x9a\xc1J\x1f\x00\x85\xf4?'
p13
tp14
Rp15
tp16
sS'gamma'
p17
(g17
F5.0822715759277344
g3
(g7
S'\xe6;N\xf2jj\xf6?'
p18
tp19
Rp20
tp21
s(lp22
g3
(g7
S'\x15\xa0\x14\x96\xb4\x81\xe2?'
p23
tp24
Rp25
ag3
(g7
S'\xd6\xbf\xd6\xd3\x96\xfc\xda?'
p26
tp27
Rp28
atp29
.