(S'gamma_exponential_mixture'
p0
(dp1
S'generalized_exponential'
p2
(g2
cnumpy.core.multiarray
scalar
p3
(cnumpy
dtype
p4
(S'f8'
p5
I0
I1
tp6
Rp7
(I3
S'<'
p8
NNNI-1
I-1
I0
tp9
bS'\x07\xc0\x1d\xe2[\xce#@'
p10
tp11
Rp12
g3
(g7
S'wi\xc9X\xa0\x94\xf8?'
p13
tp14
Rp15
tp16
sS'gamma'
p17
(g17
F5.8757820129394531
g3
(g7
S'$\xa3\xfeG\xd6~\xfb?'
p18
tp19
Rp20
tp21
s(lp22
g3
(g7
S'\xbd\xaa\xab\xcc\xf7L\xb5?'
p23
tp24
Rp25
ag3
(g7
S'\xa8\x8aj\x06aV\xed?'
p26
tp27
Rp28
atp29
.