(S'gamma_exponential_mixture'
p0
(dp1
S'generalized_exponential'
p2
(g2
cnumpy.core.multiarray
scalar
p3
(cnumpy
dtype
p4
(S'f8'
p5
I0
I1
tp6
Rp7
(I3
S'<'
p8
NNNI-1
I-1
I0
tp9
bS'\x9d\xc8\xa8\xc8s\xcc#@'
p10
tp11
Rp12
g3
(g7
S'\x93\xb41\x18\x99\xd5\xfd?'
p13
tp14
Rp15
tp16
sS'gamma'
p17
(g17
F6.9823799133300781
g3
(g7
S']\re\r\x9ev\xf3?'
p18
tp19
Rp20
tp21
s(lp22
g3
(g7
S'u\x05\xa9\xcb\x87x\xb7?'
p23
tp24
Rp25
ag3
(g7
S'Q\xdf\x8a\x06\xef\x10\xed?'
p26
tp27
Rp28
atp29
.