(S'gamma_exponential_mixture'
p0
(dp1
S'generalized_exponential'
p2
(g2
cnumpy.core.multiarray
scalar
p3
(cnumpy
dtype
p4
(S'f8'
p5
I0
I1
tp6
Rp7
(I3
S'<'
p8
NNNI-1
I-1
I0
tp9
bS'\xf2k\x8e\xb3\xa9\x8c\xfb?'
p10
tp11
Rp12
g3
(g7
S'\xce\x8a\x10\x82\\\x82\xfb?'
p13
tp14
Rp15
tp16
sS'gamma'
p17
(g17
F8.0564460754394531
g3
(g7
S'\xf3\xcb\xb1\xf4(\xbd\xf3?'
p18
tp19
Rp20
tp21
s(lp22
g3
(g7
S'\xe3\xac@\xd1\xe8\x18\xb9?'
p23
tp24
Rp25
ag3
(g7
S'c\xea\xd7\xe5\xe2\xdc\xec?'
p26
tp27
Rp28
atp29
.