(S'gamma_exponential_mixture'
p0
(dp1
S'generalized_exponential'
p2
(g2
cnumpy.core.multiarray
scalar
p3
(cnumpy
dtype
p4
(S'f8'
p5
I0
I1
tp6
Rp7
(I3
S'<'
p8
NNNI-1
I-1
I0
tp9
bS'\x0bd\xbb+\xf0\xf3#@'
p10
tp11
Rp12
g3
(g7
S'\xc6\xe6\x97\xa0\x1ev\xfc?'
p13
tp14
Rp15
tp16
sS'gamma'
p17
(g17
F66.481655120849609
g3
(g7
S'\xb2w\xdbxW\x06\xa6?'
p18
tp19
Rp20
tp21
s(lp22
g3
(g7
S"}'\xce\xfb\x87\x8c\xef?"
p23
tp24
Rp25
ag3
(g7
S'\xce v\x0c\x01\xde\x8c?'
p26
tp27
Rp28
atp29
.