(S'gamma_exponential_mixture'
p0
(dp1
S'generalized_exponential'
p2
(g2
cnumpy.core.multiarray
scalar
p3
(cnumpy
dtype
p4
(S'f8'
p5
I0
I1
tp6
Rp7
(I3
S'<'
p8
NNNI-1
I-1
I0
tp9
bS'\x82lW-\xb6\xf9#@'
p10
tp11
Rp12
g3
(g7
S'\x8a\xce\x00\x00\x00\x00\xf0?'
p13
tp14
Rp15
tp16
sS'gamma'
p17
(g17
F4.1162452697753906
g3
(g7
S'\xf7$8\x0eM\xb2\xf4?'
p18
tp19
Rp20
tp21
s(lp22
g3
(g7
S'\x98\xb3\xb1\xa2\x87\xc7\xbb?'
p23
tp24
Rp25
ag3
(g7
S'\x8d\xc9\xa9\x0b\x0f\x87\xec?'
p26
tp27
Rp28
atp29
.