(S'gamma_exponential_mixture'
p0
(dp1
S'generalized_exponential'
p2
(g2
cnumpy.core.multiarray
scalar
p3
(cnumpy
dtype
p4
(S'f8'
p5
I0
I1
tp6
Rp7
(I3
S'<'
p8
NNNI-1
I-1
I0
tp9
bS'<\xee\x1e\xbd\x1e\xff#@'
p10
tp11
Rp12
g3
(g7
S'\x8a\xce\x00\x00\x00\x00\xf0?'
p13
tp14
Rp15
tp16
sS'gamma'
p17
(g17
F3.3596992492675781
g3
(g7
S'+=T\x83\x03\xa4\x01@'
p18
tp19
Rp20
tp21
s(lp22
g3
(g7
S'\x93\x93\x14\xc3\xc7\xad\xda?'
p23
tp24
Rp25
ag3
(g7
S'6\xb6u\x1e\x1c\xa9\xe2?'
p26
tp27
Rp28
atp29
.