(S'gamma_exponential_mixture'
p0
(dp1
S'generalized_exponential'
p2
(g2
cnumpy.core.multiarray
scalar
p3
(cnumpy
dtype
p4
(S'f8'
p5
I0
I1
tp6
Rp7
(I3
S'<'
p8
NNNI-1
I-1
I0
tp9
bS'\xb3\rGq\x7f\xdd\xe4?'
p10
tp11
Rp12
g3
(g7
S'\xac\xce\x85\xdc\xcco\x08@'
p13
tp14
Rp15
tp16
sS'gamma'
p17
(g17
F15.762859344482422
g3
(g7
S'e\x11\xae\xd4\xec2\xf0?'
p18
tp19
Rp20
tp21
s(lp22
g3
(g7
S'dL\xb5\x14i)\x9a?'
p23
tp24
Rp25
ag3
(g7
S'\x9dUZ\xb7\xb4.\xef?'
p26
tp27
Rp28
atp29
.