(S'gamma_exponential_mixture'
p0
(dp1
S'generalized_exponential'
p2
(g2
cnumpy.core.multiarray
scalar
p3
(cnumpy
dtype
p4
(S'f8'
p5
I0
I1
tp6
Rp7
(I3
S'<'
p8
NNNI-1
I-1
I0
tp9
bS'\xf7\xa1\x88zE\xd7#@'
p10
tp11
Rp12
g3
(g7
S'\x8a\xce\x00\x00\x00\x00\xf0?'
p13
tp14
Rp15
tp16
sS'gamma'
p17
(g17
F3.2616539001464844
g3
(g7
S'q[\x11\xce\xe7\xd5\xfb?'
p18
tp19
Rp20
tp21
s(lp22
g3
(g7
S'\xb8\xb1[\xe7\xfb|\xe6?'
p23
tp24
Rp25
ag3
(g7
S'\x8e\x9cH1\x08\x06\xd3?'
p26
tp27
Rp28
atp29
.