(S'gamma_exponential_mixture'
p0
(dp1
S'generalized_exponential'
p2
(g2
cnumpy.core.multiarray
scalar
p3
(cnumpy
dtype
p4
(S'f8'
p5
I0
I1
tp6
Rp7
(I3
S'<'
p8
NNNI-1
I-1
I0
tp9
bS'\x98\xe1s\x01\x83\x92\xf6?'
p10
tp11
Rp12
g3
(g7
S'!\xd3_=xx\xf1?'
p13
tp14
Rp15
tp16
sS'gamma'
p17
(g17
F5.1987037658691406
g3
(g7
S'\xfb\x0b\x1d\x1dz[\xf6?'
p18
tp19
Rp20
tp21
s(lp22
g3
(g7
S'\x0f\x97\xf4g\x91\xb3\xb0?'
p23
tp24
Rp25
ag3
(g7
S'\x1em\x01\xd3\x8d\xe9\xed?'
p26
tp27
Rp28
atp29
.