(S'gamma_exponential_mixture'
p0
(dp1
S'generalized_exponential'
p2
(g2
cnumpy.core.multiarray
scalar
p3
(cnumpy
dtype
p4
(S'f8'
p5
I0
I1
tp6
Rp7
(I3
S'<'
p8
NNNI-1
I-1
I0
tp9
bS'\x88\xb7T\x08v\xee#@'
p10
tp11
Rp12
g3
(g7
S'\xe2:\xa4>\xf12\x00@'
p13
tp14
Rp15
tp16
sS'gamma'
p17
(g17
F1.9999961853027344
g3
(g7
S'\x00\x00\x00\x00\x00\x00\xf8\xff'
p18
tp19
Rp20
tp21
s(lp22
g3
(g7
S'\xce(\x08h\xae\xef\xef?'
p23
tp24
Rp25
ag3
(g7
S'\r2\xd7\xf7\x97Q`?'
p26
tp27
Rp28
atp29
.