(S'gamma_exponential_mixture'
p0
(dp1
S'generalized_exponential'
p2
(g2
cnumpy.core.multiarray
scalar
p3
(cnumpy
dtype
p4
(S'f8'
p5
I0
I1
tp6
Rp7
(I3
S'<'
p8
NNNI-1
I-1
I0
tp9
bS'AAh4R\xd7#@'
p10
tp11
Rp12
g3
(g7
S'\xd0\xba\x08\xea,:\xf3?'
p13
tp14
Rp15
tp16
sS'gamma'
p17
(g17
F4.6651115417480469
g3
(g7
S'KN\x9f\xe4\xe4V\xe9?'
p18
tp19
Rp20
tp21
s(lp22
g3
(g7
S'Q\xd2\x8d\x1b`&\xee?'
p23
tp24
Rp25
ag3
(g7
S'\xec\xda"G\xfe\x99\xad?'
p26
tp27
Rp28
atp29
.