(S'gamma_exponential_mixture'
p0
(dp1
S'generalized_exponential'
p2
(g2
cnumpy.core.multiarray
scalar
p3
(cnumpy
dtype
p4
(S'f8'
p5
I0
I1
tp6
Rp7
(I3
S'<'
p8
NNNI-1
I-1
I0
tp9
bS'\x12t\xdd\x1b\r\xf0\x13@'
p10
tp11
Rp12
g3
(g7
S'\x84Z`\x03\x00\x00\x08@'
p13
tp14
Rp15
tp16
sS'gamma'
p17
(g17
F17.549694061279297
g3
(g7
S'\xfe\xc5\xf3e\x9c\xea\xe5?'
p18
tp19
Rp20
tp21
s(lp22
g3
(g7
S'\x8e\xaa1\\G\x06\xb9?'
p23
tp24
Rp25
ag3
(g7
S'\xae\xcay\x147\xdf\xec?'
p26
tp27
Rp28
atp29
.