(S'gamma_exponential_mixture'
p0
(dp1
S'generalized_exponential'
p2
(g2
cnumpy.core.multiarray
scalar
p3
(cnumpy
dtype
p4
(S'f8'
p5
I0
I1
tp6
Rp7
(I3
S'<'
p8
NNNI-1
I-1
I0
tp9
bS'`Ve\x13\xe2\xd7#@'
p10
tp11
Rp12
g3
(g7
S'\x8a\xce\x00\x00\x00\x00\xf0?'
p13
tp14
Rp15
tp16
sS'gamma'
p17
(g17
F4.6767158508300781
g3
(g7
S'\xd5iw\x01\xa4\x19\xf8?'
p18
tp19
Rp20
tp21
s(lp22
g3
(g7
S'\x8a\xa8{\x93\x8cF\xdc?'
p23
tp24
Rp25
ag3
(g7
S'\xbb+B\xb6\xb9\xdc\xe1?'
p26
tp27
Rp28
atp29
.