(S'gamma_exponential_mixture'
p0
(dp1
S'generalized_exponential'
p2
(g2
cnumpy.core.multiarray
scalar
p3
(cnumpy
dtype
p4
(S'f8'
p5
I0
I1
tp6
Rp7
(I3
S'<'
p8
NNNI-1
I-1
I0
tp9
bS'\xfb\xc0\xd2\xf4\x1b\xfd#@'
p10
tp11
Rp12
g3
(g7
S'\x0b\xd7<\xce\xe5\xf9\xf7?'
p13
tp14
Rp15
tp16
sS'gamma'
p17
(g17
F8.1070976257324219
g3
(g7
S'!2\x1e\x06.j\xdb?'
p18
tp19
Rp20
tp21
s(lp22
g3
(g7
S'TUD\xd3\xdcz\xef?'
p23
tp24
Rp25
ag3
(g7
S'\x8bUu\x97e\xa4\x90?'
p26
tp27
Rp28
atp29
.