(S'gamma_exponential_mixture'
p0
(dp1
S'generalized_exponential'
p2
(g2
cnumpy.core.multiarray
scalar
p3
(cnumpy
dtype
p4
(S'f8'
p5
I0
I1
tp6
Rp7
(I3
S'<'
p8
NNNI-1
I-1
I0
tp9
bS'M|\xf1\xcf\x83\xfc#@'
p10
tp11
Rp12
g3
(g7
S"N\xbd\x1b'\xe8\x17\x06@"
p13
tp14
Rp15
tp16
sS'gamma'
p17
(g17
F8.2538261413574219
g3
(g7
S'Z\x91D\xabE\xac\xf5?'
p18
tp19
Rp20
tp21
s(lp22
g3
(g7
S'=\xf3U\x90\xfem\xbe?'
p23
tp24
Rp25
ag3
(g7
S'\x99A\xf5-@2\xec?'
p26
tp27
Rp28
atp29
.