(S'gamma_exponential_mixture'
p0
(dp1
S'generalized_exponential'
p2
(g2
cnumpy.core.multiarray
scalar
p3
(cnumpy
dtype
p4
(S'f8'
p5
I0
I1
tp6
Rp7
(I3
S'<'
p8
NNNI-1
I-1
I0
tp9
bS'\xce\x93\x1aG\x0e\xfa#@'
p10
tp11
Rp12
g3
(g7
S'\x8a\xce\x00\x00\x00\x00\xf0?'
p13
tp14
Rp15
tp16
sS'gamma'
p17
(g17
F5.1937599182128906
g3
(g7
S'g\xd5"\xb5\xa3\xd8\xf8?'
p18
tp19
Rp20
tp21
s(lp22
g3
(g7
S"_\xe1'(\xee\x8a\xd7?"
p23
tp24
Rp25
ag3
(g7
S'P\x0f\xec\xeb\x88:\xe4?'
p26
tp27
Rp28
atp29
.