(S'gamma_exponential_mixture'
p0
(dp1
S'generalized_exponential'
p2
(g2
cnumpy.core.multiarray
scalar
p3
(cnumpy
dtype
p4
(S'f8'
p5
I0
I1
tp6
Rp7
(I3
S'<'
p8
NNNI-1
I-1
I0
tp9
bS'zW\xcf\xf8\xad\xf1#@'
p10
tp11
Rp12
g3
(g7
S'\x8a\xce\x00\x00\x00\x00\xf0?'
p13
tp14
Rp15
tp16
sS'gamma'
p17
(g17
F3.9029960632324219
g3
(g7
S'N\xf8\xd5Q1K\x01@'
p18
tp19
Rp20
tp21
s(lp22
g3
(g7
S'\xde\x9c\xcf\xd3\x9cd\xe2?'
p23
tp24
Rp25
ag3
(g7
S'B\xc6`X\xc66\xdb?'
p26
tp27
Rp28
atp29
.