(S'gamma_exponential_mixture'
p0
(dp1
S'generalized_exponential'
p2
(g2
cnumpy.core.multiarray
scalar
p3
(cnumpy
dtype
p4
(S'f8'
p5
I0
I1
tp6
Rp7
(I3
S'<'
p8
NNNI-1
I-1
I0
tp9
bS'\x04\xa7\x0f\x02f\xd8#@'
p10
tp11
Rp12
g3
(g7
S',:)\xe4\xf9:\xf0?'
p13
tp14
Rp15
tp16
sS'gamma'
p17
(g17
F5.1431388854980469
g3
(g7
S'H\xf60_\x85\xd9\xf6?'
p18
tp19
Rp20
tp21
s(lp22
g3
(g7
S'\tY\x83~\xef\xf6\xce?'
p23
tp24
Rp25
ag3
(g7
S'\xbd)_ DB\xe8?'
p26
tp27
Rp28
atp29
.