(S'gamma_exponential_mixture'
p0
(dp1
S'generalized_exponential'
p2
(g2
cnumpy.core.multiarray
scalar
p3
(cnumpy
dtype
p4
(S'f8'
p5
I0
I1
tp6
Rp7
(I3
S'<'
p8
NNNI-1
I-1
I0
tp9
bS'\x94\xf8LZ\\\xe6#@'
p10
tp11
Rp12
g3
(g7
S'?\xbd\xcf\xc3|\x98\x06@'
p13
tp14
Rp15
tp16
sS'gamma'
p17
(g17
F6.6863670349121094
g3
(g7
S'E\x11\x1bMWG\x01@'
p18
tp19
Rp20
tp21
s(lp22
g3
(g7
S'$\x05\xaf\xc3\x94\x8f\x96?'
p23
tp24
Rp25
ag3
(g7
S'\xd7\x87\xe2Y\x83K\xef?'
p26
tp27
Rp28
atp29
.