(S'gamma_exponential_mixture'
p0
(dp1
S'generalized_exponential'
p2
(g2
cnumpy.core.multiarray
scalar
p3
(cnumpy
dtype
p4
(S'f8'
p5
I0
I1
tp6
Rp7
(I3
S'<'
p8
NNNI-1
I-1
I0
tp9
bS'w\x8fYE=\xd3#@'
p10
tp11
Rp12
g3
(g7
S'\xae\xa5D#\xe4n\xf1?'
p13
tp14
Rp15
tp16
sS'gamma'
p17
(g17
F5.6586494445800781
g3
(g7
S'dq\xf2\x98\x93?\x02@'
p18
tp19
Rp20
tp21
s(lp22
g3
(g7
S'\xb7\xdd\xa9\x1c/|\xc0?'
p23
tp24
Rp25
ag3
(g7
S'\x92\x88\xd58\xf4\xe0\xeb?'
p26
tp27
Rp28
atp29
.