(S'gamma_exponential_mixture'
p0
(dp1
S'generalized_exponential'
p2
(g2
cnumpy.core.multiarray
scalar
p3
(cnumpy
dtype
p4
(S'f8'
p5
I0
I1
tp6
Rp7
(I3
S'<'
p8
NNNI-1
I-1
I0
tp9
bS'\xa9\xc9\xfd\x87\x8a\xd4#@'
p10
tp11
Rp12
g3
(g7
S'\xb5\x97\x95Fe\x07\xfb?'
p13
tp14
Rp15
tp16
sS'gamma'
p17
(g17
F5.9684181213378906
g3
(g7
S'O=\xf2\x81\x1e\x19\xf8?'
p18
tp19
Rp20
tp21
s(lp22
g3
(g7
S' \xb1\xb5\x05\x81\x0b\xb8?'
p23
tp24
Rp25
ag3
(g7
S'\xdcII\xdf\x8f\xfe\xec?'
p26
tp27
Rp28
atp29
.