(S'gamma_exponential_mixture'
p0
(dp1
S'generalized_exponential'
p2
(g2
cnumpy.core.multiarray
scalar
p3
(cnumpy
dtype
p4
(S'f8'
p5
I0
I1
tp6
Rp7
(I3
S'<'
p8
NNNI-1
I-1
I0
tp9
bS'\x95\x8cl\xa1)\xf1#@'
p10
tp11
Rp12
g3
(g7
S'\xc0\x93\xd1\x8d1\x17\xfa?'
p13
tp14
Rp15
tp16
sS'gamma'
p17
(g17
F4.4533882141113281
g3
(g7
S'\x9f\xb0\x0c\x97\xd0[\xfa?'
p18
tp19
Rp20
tp21
s(lp22
g3
(g7
S'%\xfc\xd1\x9c\x12 \xec?'
p23
tp24
Rp25
ag3
(g7
S'\xd7\x1ep\x19k\xff\xbe?'
p26
tp27
Rp28
atp29
.