(S'gamma_exponential_mixture'
p0
(dp1
S'generalized_exponential'
p2
(g2
cnumpy.core.multiarray
scalar
p3
(cnumpy
dtype
p4
(S'f8'
p5
I0
I1
tp6
Rp7
(I3
S'<'
p8
NNNI-1
I-1
I0
tp9
bS'$\xb2O8\x8e\xe4#@'
p10
tp11
Rp12
g3
(g7
S'!C~V\xab#\xfd?'
p13
tp14
Rp15
tp16
sS'gamma'
p17
(g17
F4.6986961364746094
g3
(g7
S'\xff\xd6\xaf\xaf\xe8\xd8\xfb?'
p18
tp19
Rp20
tp21
s(lp22
g3
(g7
S'\xba\xd4\xf7\x91\xb0\xd8\xea?'
p23
tp24
Rp25
ag3
(g7
S'\x14\xad \xb8=\x9d\xc4?'
p26
tp27
Rp28
atp29
.