(S'gamma_exponential_mixture'
p0
(dp1
S'generalized_exponential'
p2
(g2
cnumpy.core.multiarray
scalar
p3
(cnumpy
dtype
p4
(S'f8'
p5
I0
I1
tp6
Rp7
(I3
S'<'
p8
NNNI-1
I-1
I0
tp9
bS'\x12\xd7\x83\xb5\xa1\xed#@'
p10
tp11
Rp12
g3
(g7
S'\x8d\x9da6\x19\xc1\xf9?'
p13
tp14
Rp15
tp16
sS'gamma'
p17
(g17
F4.3043785095214844
g3
(g7
S'\xa9\xaf\xe6i\x06\xe6\x00@'
p18
tp19
Rp20
tp21
s(lp22
g3
(g7
S'?\x9e5|\xd4\xdf\xc0?'
p23
tp24
Rp25
ag3
(g7
S'p\x98\xf2\xe0\n\xc8\xeb?'
p26
tp27
Rp28
atp29
.