(S'gamma_exponential_mixture'
p0
(dp1
S'generalized_exponential'
p2
(g2
cnumpy.core.multiarray
scalar
p3
(cnumpy
dtype
p4
(S'f8'
p5
I0
I1
tp6
Rp7
(I3
S'<'
p8
NNNI-1
I-1
I0
tp9
bS';\x00\xc7\x12\xfa\xd2#@'
p10
tp11
Rp12
g3
(g7
S'\x83\xce\xa5:\xef\xc6\xf3?'
p13
tp14
Rp15
tp16
sS'gamma'
p17
(g17
F4.4483757019042969
g3
(g7
S'v\xdfv\xc4ZM\x03@'
p18
tp19
Rp20
tp21
s(lp22
g3
(g7
S'\x06\x0f\x08\xd6,\x8d\xc6?'
p23
tp24
Rp25
ag3
(g7
S'?\xfc}\xca\xb4\\\xea?'
p26
tp27
Rp28
atp29
.