(S'gamma_exponential_mixture'
p0
(dp1
S'generalized_exponential'
p2
(g2
cnumpy.core.multiarray
scalar
p3
(cnumpy
dtype
p4
(S'f8'
p5
I0
I1
tp6
Rp7
(I3
S'<'
p8
NNNI-1
I-1
I0
tp9
bS'\xaa\xb2y)m\xd8#@'
p10
tp11
Rp12
g3
(g7
S'\xc5ox\xbe\xe0U\xf0?'
p13
tp14
Rp15
tp16
sS'gamma'
p17
(g17
F5.0372047424316406
g3
(g7
S'e\x1e\xa6|"\xeb\xfd?'
p18
tp19
Rp20
tp21
s(lp22
g3
(g7
S';\x1f\x84\xa0\x94\x0c\xce?'
p23
tp24
Rp25
ag3
(g7
S'2\xf8\xde\xd7\xda|\xe8?'
p26
tp27
Rp28
atp29
.