(S'gamma_exponential_mixture'
p0
(dp1
S'generalized_exponential'
p2
(g2
cnumpy.core.multiarray
scalar
p3
(cnumpy
dtype
p4
(S'f8'
p5
I0
I1
tp6
Rp7
(I3
S'<'
p8
NNNI-1
I-1
I0
tp9
bS'\x13\x9ch\x0ef\xee#@'
p10
tp11
Rp12
g3
(g7
S'\x15y\xed\x0fR}\xf7?'
p13
tp14
Rp15
tp16
sS'gamma'
p17
(g17
F4.7222633361816406
g3
(g7
S'\xd4\xaf\x919\x1e4\x00@'
p18
tp19
Rp20
tp21
s(lp22
g3
(g7
S'\xd5l\x17g\xe4P\xc6?'
p23
tp24
Rp25
ag3
(g7
S'\xca$:\xe6\xc6k\xea?'
p26
tp27
Rp28
atp29
.