(S'gamma_exponential_mixture'
p0
(dp1
S'generalized_exponential'
p2
(g2
cnumpy.core.multiarray
scalar
p3
(cnumpy
dtype
p4
(S'f8'
p5
I0
I1
tp6
Rp7
(I3
S'<'
p8
NNNI-1
I-1
I0
tp9
bS'\x94\xcf<\x9a\x94\x87\xe4?'
p10
tp11
Rp12
g3
(g7
S'\\\x12K\x8e\x9ca\x0e@'
p13
tp14
Rp15
tp16
sS'gamma'
p17
(g17
F16.205524444580078
g3
(g7
S'-\xcc$Y\x04\x88\xf0?'
p18
tp19
Rp20
tp21
s(lp22
g3
(g7
S'~\r\x11\xa3\x9b[g?'
p23
tp24
Rp25
ag3
(g7
S'\xf3\xee\\d\xa4\xe8\xef?'
p26
tp27
Rp28
atp29
.