(S'gamma_exponential_mixture'
p0
(dp1
S'generalized_exponential'
p2
(g2
cnumpy.core.multiarray
scalar
p3
(cnumpy
dtype
p4
(S'f8'
p5
I0
I1
tp6
Rp7
(I3
S'<'
p8
NNNI-1
I-1
I0
tp9
bS'W\x9b\x97\xb5f\xd4#@'
p10
tp11
Rp12
g3
(g7
S'\x8a\xce\x00\x00\x00\x00\xf0?'
p13
tp14
Rp15
tp16
sS'gamma'
p17
(g17
F1.3807182312011719
g3
(g7
S'\x1bO\xfcv\xc4\xe4 @'
p18
tp19
Rp20
tp21
s(lp22
g3
(g7
S'\x904\xfbF2k\xeb?'
p23
tp24
Rp25
ag3
(g7
S'\xbf-\x13\xe46S\xc2?'
p26
tp27
Rp28
atp29
.