(S'gamma_exponential_mixture'
p0
(dp1
S'generalized_exponential'
p2
(g2
cnumpy.core.multiarray
scalar
p3
(cnumpy
dtype
p4
(S'f8'
p5
I0
I1
tp6
Rp7
(I3
S'<'
p8
NNNI-1
I-1
I0
tp9
bS'\x94\xe9\xfb\x99\xba\xf7#@'
p10
tp11
Rp12
g3
(g7
S'\x8a\xce\x00\x00\x00\x00\xf0?'
p13
tp14
Rp15
tp16
sS'gamma'
p17
(g17
F7.2550468444824219
g3
(g7
S'\x07{T\x8e\x08\xd8\xfa?'
p18
tp19
Rp20
tp21
s(lp22
g3
(g7
S'\xc1t\x7fK\xbe\xb2\xa7?'
p23
tp24
Rp25
ag3
(g7
S'\xb3\x08H\x1b\xd4\x84\xee?'
p26
tp27
Rp28
atp29
.