(S'gamma_exponential_mixture'
p0
(dp1
S'generalized_exponential'
p2
(g2
cnumpy.core.multiarray
scalar
p3
(cnumpy
dtype
p4
(S'f8'
p5
I0
I1
tp6
Rp7
(I3
S'<'
p8
NNNI-1
I-1
I0
tp9
bS'\xeb\xf3o=\n\xd7\xff?'
p10
tp11
Rp12
g3
(g7
S'\xd8,4\xa4\xde\x94\xff?'
p13
tp14
Rp15
tp16
sS'gamma'
p17
(g17
F10.825366973876953
g3
(g7
S'\x96}(a\xe8Y\xf0?'
p18
tp19
Rp20
tp21
s(lp22
g3
(g7
S'\x15M#\xc3\xbc\x89\xba?'
p23
tp24
Rp25
ag3
(g7
S']\x96\x9bg\xc8\xae\xec?'
p26
tp27
Rp28
atp29
.