(S'gamma_exponential_mixture'
p0
(dp1
S'generalized_exponential'
p2
(g2
cnumpy.core.multiarray
scalar
p3
(cnumpy
dtype
p4
(S'f8'
p5
I0
I1
tp6
Rp7
(I3
S'<'
p8
NNNI-1
I-1
I0
tp9
bS'\x87\x83\xb1r\xac\xd7\x01@'
p10
tp11
Rp12
g3
(g7
S'\xfd\x03\x01P\x9d\\\xff?'
p13
tp14
Rp15
tp16
sS'gamma'
p17
(g17
F13.222415924072266
g3
(g7
S'\x97tB_\x83\x03\xeb?'
p18
tp19
Rp20
tp21
s(lp22
g3
(g7
S'\x16h\xfb70y\xbe?'
p23
tp24
Rp25
ag3
(g7
S'\xfe\x92\x00\xf9\xd90\xec?'
p26
tp27
Rp28
atp29
.