(S'gamma_exponential_mixture'
p0
(dp1
S'generalized_exponential'
p2
(g2
cnumpy.core.multiarray
scalar
p3
(cnumpy
dtype
p4
(S'f8'
p5
I0
I1
tp6
Rp7
(I3
S'<'
p8
NNNI-1
I-1
I0
tp9
bS'EjW\xa7\xb3\xe3#@'
p10
tp11
Rp12
g3
(g7
S'\x8b8\xe0\xaa9Q\xf7?'
p13
tp14
Rp15
tp16
sS'gamma'
p17
(g17
F8.0964012145996094
g3
(g7
S'a-\x87\xc2\x93l\xf0?'
p18
tp19
Rp20
tp21
s(lp22
g3
(g7
S'\xa9\xbeq\x17\xeaR\xa4?'
p23
tp24
Rp25
ag3
(g7
S'\x15\xe4\x88^\xd1\xba\xee?'
p26
tp27
Rp28
atp29
.