(S'gamma_exponential_mixture'
p0
(dp1
S'generalized_exponential'
p2
(g2
cnumpy.core.multiarray
scalar
p3
(cnumpy
dtype
p4
(S'f8'
p5
I0
I1
tp6
Rp7
(I3
S'<'
p8
NNNI-1
I-1
I0
tp9
bS'\x13\x97\x18\xd8\xd9\xff#@'
p10
tp11
Rp12
g3
(g7
S'\x12\xbe\xe0#\x9b\x0e\xfc?'
p13
tp14
Rp15
tp16
sS'gamma'
p17
(g17
F10.310016632080078
g3
(g7
S'\xdb\x00\x01\xb4\xe5g\xf3?'
p18
tp19
Rp20
tp21
s(lp22
g3
(g7
S'L\xd4\x08\x8d\x04L\x96?'
p23
tp24
Rp25
ag3
(g7
S']\xb9\x97\xdb\x9fM\xef?'
p26
tp27
Rp28
atp29
.