(S'gamma_exponential_mixture'
p0
(dp1
S'generalized_exponential'
p2
(g2
cnumpy.core.multiarray
scalar
p3
(cnumpy
dtype
p4
(S'f8'
p5
I0
I1
tp6
Rp7
(I3
S'<'
p8
NNNI-1
I-1
I0
tp9
bS'&\xd3\x12\x1e#\xf7#@'
p10
tp11
Rp12
g3
(g7
S'\x8a\xce\x00\x00\x00\x00\xf0?'
p13
tp14
Rp15
tp16
sS'gamma'
p17
(g17
F3.7951011657714844
g3
(g7
S';\x82\xb1\xa3\xd0\x10\x00@'
p18
tp19
Rp20
tp21
s(lp22
g3
(g7
S'e\x1e\xfd\x1e\xbc\x8c\xdf?'
p23
tp24
Rp25
ag3
(g7
S'\xcep\x81\xf0\xa19\xe0?'
p26
tp27
Rp28
atp29
.