(S'gamma_exponential_mixture'
p0
(dp1
S'generalized_exponential'
p2
(g2
cnumpy.core.multiarray
scalar
p3
(cnumpy
dtype
p4
(S'f8'
p5
I0
I1
tp6
Rp7
(I3
S'<'
p8
NNNI-1
I-1
I0
tp9
bS'_;\x12b\x83\xed#@'
p10
tp11
Rp12
g3
(g7
S'`\n\xc4\xff\x86u\x01@'
p13
tp14
Rp15
tp16
sS'gamma'
p17
(g17
F95.538768768310547
g3
(g7
S'\xc2\x88\x1f\x06\xa0T\xa9?'
p18
tp19
Rp20
tp21
s(lp22
g3
(g7
S'\x8fBn4`\xbc\xef?'
p23
tp24
Rp25
ag3
(g7
S'.\\o\xe4\xf2\xe7\x80?'
p26
tp27
Rp28
atp29
.