(S'gamma_exponential_mixture'
p0
(dp1
S'generalized_exponential'
p2
(g2
cnumpy.core.multiarray
scalar
p3
(cnumpy
dtype
p4
(S'f8'
p5
I0
I1
tp6
Rp7
(I3
S'<'
p8
NNNI-1
I-1
I0
tp9
bS'\x144\xbdb8\xd5#@'
p10
tp11
Rp12
g3
(g7
S'\x07\x8a\x01\xb4\x87\xe8\xf2?'
p13
tp14
Rp15
tp16
sS'gamma'
p17
(g17
F6.5618782043457031
g3
(g7
S'I\xdcxf\xe8\xbd\xf3?'
p18
tp19
Rp20
tp21
s(lp22
g3
(g7
S' -\x95\xb1\xd8\xe5\xc6?'
p23
tp24
Rp25
ag3
(g7
S'\xb9\xb4\x9a\xd3\x89F\xea?'
p26
tp27
Rp28
atp29
.