(S'gamma_exponential_mixture'
p0
(dp1
S'generalized_exponential'
p2
(g2
cnumpy.core.multiarray
scalar
p3
(cnumpy
dtype
p4
(S'f8'
p5
I0
I1
tp6
Rp7
(I3
S'<'
p8
NNNI-1
I-1
I0
tp9
bS'\xab\x1b\xdc\x91\xb1P\xf1?'
p10
tp11
Rp12
g3
(g7
S"\xda'S;zT\x01@"
p13
tp14
Rp15
tp16
sS'gamma'
p17
(g17
F7.2746772766113281
g3
(g7
S'\x1a!\rQs\x83\xf6?'
p18
tp19
Rp20
tp21
s(lp22
g3
(g7
S'\x12\xc5N\x85\xcc\xaa\xb2?'
p23
tp24
Rp25
ag3
(g7
S"]'Vo\xa6\xaa\xed?"
p26
tp27
Rp28
atp29
.