(S'gamma_exponential_mixture'
p0
(dp1
S'generalized_exponential'
p2
(g2
cnumpy.core.multiarray
scalar
p3
(cnumpy
dtype
p4
(S'f8'
p5
I0
I1
tp6
Rp7
(I3
S'<'
p8
NNNI-1
I-1
I0
tp9
bS'\x89p\xb1l\x8c\xd8#@'
p10
tp11
Rp12
g3
(g7
S"\x18\xf8\xbf\xc4\xb2'\xf0?"
p13
tp14
Rp15
tp16
sS'gamma'
p17
(g17
F4.3116874694824219
g3
(g7
S'\x19p\xa7g\x88\x0f\xfe?'
p18
tp19
Rp20
tp21
s(lp22
g3
(g7
S'}\xe5\x9eN\xc3{\xc1?'
p23
tp24
Rp25
ag3
(g7
S'\xa0FX,\x0f\xa1\xeb?'
p26
tp27
Rp28
atp29
.